; Function Attrs: nounwind uwtable
define ptr @l_Lake_Job_toOpaque___rarg(ptr noundef %0) #1 {
  %.val = load i32, ptr %0, align 4, !tbaa !4
  %2 = icmp eq i32 %.val, 1
  br i1 %2, label %3, label %15

3:                                                ; preds = %1
  %4 = getelementptr inbounds nuw i8, ptr %0, i64 16
  %5 = load ptr, ptr %4, align 8, !tbaa !10
  %6 = ptrtoint ptr %5 to i64
  %7 = and i64 %6, 1
  %.not32 = icmp eq i64 %7, 0
  br i1 %.not32, label %8, label %lean_dec.exit22

8:                                                ; preds = %3
  %9 = load i32, ptr %5, align 4, !tbaa !4
  %10 = icmp sgt i32 %9, 1
  br i1 %10, label %11, label %13, !prof !9

11:                                               ; preds = %8
  %12 = add nsw i32 %9, -1
  store i32 %12, ptr %5, align 4, !tbaa !4
  br label %lean_dec.exit22

13:                                               ; preds = %8
  %.not.i = icmp eq i32 %9, 0
  br i1 %.not.i, label %lean_dec.exit22, label %14

14:                                               ; preds = %13
  tail call void @lean_dec_ref_cold(ptr noundef nonnull %5) #8
  br label %lean_dec.exit22

lean_dec.exit22:                                  ; preds = %14, %13, %11, %3
  store ptr inttoptr (i64 1 to ptr), ptr %4, align 8, !tbaa !10
  br label %55

15:                                               ; preds = %1
  %16 = getelementptr inbounds nuw i8, ptr %0, i64 8
  %17 = load ptr, ptr %16, align 8, !tbaa !10
  %18 = getelementptr inbounds nuw i8, ptr %0, i64 24
  %19 = load ptr, ptr %18, align 8, !tbaa !10
  %20 = getelementptr inbounds nuw i8, ptr %0, i64 32
  %21 = load i8, ptr %20, align 1, !tbaa !16
  %22 = ptrtoint ptr %19 to i64
  %23 = and i64 %22, 1
  %.not = icmp eq i64 %23, 0
  br i1 %.not, label %24, label %lean_inc.exit23

24:                                               ; preds = %15
  %.val.i = load i32, ptr %19, align 4, !tbaa !4
  %25 = icmp sgt i32 %.val.i, 0
  br i1 %25, label %26, label %28, !prof !9

26:                                               ; preds = %24
  %27 = add nuw i32 %.val.i, 1
  store i32 %27, ptr %19, align 4, !tbaa !4
  br label %lean_inc.exit23

28:                                               ; preds = %24
  %.not.i26 = icmp eq i32 %.val.i, 0
  br i1 %.not.i26, label %lean_inc.exit23, label %29

29:                                               ; preds = %28
  tail call void @lean_inc_ref_cold(ptr noundef nonnull %19) #8
  br label %lean_inc.exit23

lean_inc.exit23:                                  ; preds = %29, %28, %26, %15
  %30 = ptrtoint ptr %17 to i64
  %31 = and i64 %30, 1
  %.not30 = icmp eq i64 %31, 0
  br i1 %.not30, label %32, label %lean_inc.exit

32:                                               ; preds = %lean_inc.exit23
  %.val.i27 = load i32, ptr %17, align 4, !tbaa !4
  %33 = icmp sgt i32 %.val.i27, 0
  br i1 %33, label %34, label %36, !prof !9

34:                                               ; preds = %32
  %35 = add nuw i32 %.val.i27, 1
  store i32 %35, ptr %17, align 4, !tbaa !4
  br label %lean_inc.exit

36:                                               ; preds = %32
  %.not.i28 = icmp eq i32 %.val.i27, 0
  br i1 %.not.i28, label %lean_inc.exit, label %37

37:                                               ; preds = %36
  tail call void @lean_inc_ref_cold(ptr noundef nonnull %17) #8
  br label %lean_inc.exit

lean_inc.exit:                                    ; preds = %37, %36, %34, %lean_inc.exit23
  %38 = ptrtoint ptr %0 to i64
  %39 = and i64 %38, 1
  %.not31 = icmp eq i64 %39, 0
  br i1 %.not31, label %40, label %lean_dec.exit

40:                                               ; preds = %lean_inc.exit
  %41 = load i32, ptr %0, align 4, !tbaa !4
  %42 = icmp sgt i32 %41, 1
  br i1 %42, label %43, label %45, !prof !9

43:                                               ; preds = %40
  %44 = add nsw i32 %41, -1
  store i32 %44, ptr %0, align 4, !tbaa !4
  br label %lean_dec.exit

45:                                               ; preds = %40
  %.not.i24 = icmp eq i32 %41, 0
  br i1 %.not.i24, label %lean_dec.exit, label %46

46:                                               ; preds = %45
  tail call void @lean_dec_ref_cold(ptr noundef nonnull %0) #8
  br label %lean_dec.exit

lean_dec.exit:                                    ; preds = %46, %45, %43, %lean_inc.exit
  tail call void @lean_inc_heartbeat() #8
  %47 = tail call noalias ptr @mi_malloc_small(i64 noundef 40) #8
  %48 = icmp eq ptr %47, null
  br i1 %48, label %49, label %lean_alloc_ctor.exit

49:                                               ; preds = %lean_dec.exit
  tail call void @lean_internal_panic_out_of_memory() #9
  unreachable

lean_alloc_ctor.exit:                             ; preds = %lean_dec.exit
  %50 = getelementptr inbounds nuw i8, ptr %47, i64 4
  %51 = getelementptr inbounds nuw i8, ptr %47, i64 32
  store i64 0, ptr %51, align 8, !tbaa !17
  store i32 1, ptr %47, align 4, !tbaa !4
  store i32 196648, ptr %50, align 4
  %52 = getelementptr inbounds nuw i8, ptr %47, i64 8
  store ptr %17, ptr %52, align 8, !tbaa !10
  %53 = getelementptr inbounds nuw i8, ptr %47, i64 16
  store ptr inttoptr (i64 1 to ptr), ptr %53, align 8, !tbaa !10
  %54 = getelementptr inbounds nuw i8, ptr %47, i64 24
  store ptr %19, ptr %54, align 8, !tbaa !10
  store i8 %21, ptr %51, align 1, !tbaa !16
  br label %55

55:                                               ; preds = %lean_alloc_ctor.exit, %lean_dec.exit22
  %.0 = phi ptr [ %0, %lean_dec.exit22 ], [ %47, %lean_alloc_ctor.exit ]
  ret ptr %.0
}